; Function Attrs: mustprogress nofree norecurse nosync nounwind willreturn memory(argmem: readwrite) uwtable
define hidden signext range(i8 0, 2) i8 @nfaExecGough16_initCompressedState(ptr noundef readonly captures(none) %0, i64 noundef %1, ptr noundef writeonly captures(none) %2, i8 noundef zeroext %3) local_unnamed_addr #3 {
  %5 = getelementptr inbounds nuw i8, ptr %0, i64 28
  %6 = load i32, ptr %5, align 4
  %7 = zext i32 %6 to i64
  tail call void @llvm.memset.p0.i64(ptr align 1 %2, i8 0, i64 %7, i1 false)
  %.not = icmp eq i64 %1, 0
  %.in.in.v = select i1 %.not, i64 72, i64 74
  %.in.in = getelementptr inbounds nuw i8, ptr %0, i64 %.in.in.v
  %.in10 = load i16, ptr %.in.in, align 2
  %.not11 = icmp eq i16 %.in10, 0
  br i1 %.not11, label %9, label %8

8:                                                ; preds = %4
  store i16 %.in10, ptr %2, align 1
  br label %9

9:                                                ; preds = %4, %8
  %.0 = phi i8 [ 1, %8 ], [ 0, %4 ]
  ret i8 %.0
}